SF:/Users/yliesfalcone/REPOS/scanworks/StylusPort/crates/anchor_parser/src/display/ast.rs
FN:18,_RNvNtNtCsfBVTV2kcvfU_13anchor_parser7display3ast10format_ast
FN:50,_RNvNtNtCsfBVTV2kcvfU_13anchor_parser7display3ast9print_ast
FN:18,_RNvNtNtCs4Zl3or2NBcr_13anchor_parser7display3ast10format_ast
FN:50,_RNvNtNtCs4Zl3or2NBcr_13anchor_parser7display3ast9print_ast
FN:60,_RNvNtNtNtCs4Zl3or2NBcr_13anchor_parser7display3ast5testss_15test_format_ast
FN:18,_RNvNtNtCs3bmxXg7Z0Eq_19anchor_parser_tests7display3ast10format_ast
FN:50,_RNvNtNtCs3bmxXg7Z0Eq_19anchor_parser_tests7display3ast9print_ast
FN:60,_RNvNtNtNtCs3bmxXg7Z0Eq_19anchor_parser_tests7display3ast5testss_15test_format_ast
FNDA:4,_RNvNtNtCsfBVTV2kcvfU_13anchor_parser7display3ast10format_ast
FNDA:1,_RNvNtNtCsfBVTV2kcvfU_13anchor_parser7display3ast9print_ast
FNDA:1,_RNvNtNtCs4Zl3or2NBcr_13anchor_parser7display3ast10format_ast
FNDA:0,_RNvNtNtCs4Zl3or2NBcr_13anchor_parser7display3ast9print_ast
FNDA:1,_RNvNtNtNtCs4Zl3or2NBcr_13anchor_parser7display3ast5testss_15test_format_ast
FNDA:1,_RNvNtNtCs3bmxXg7Z0Eq_19anchor_parser_tests7display3ast10format_ast
FNDA:0,_RNvNtNtCs3bmxXg7Z0Eq_19anchor_parser_tests7display3ast9print_ast
FNDA:1,_RNvNtNtNtCs3bmxXg7Z0Eq_19anchor_parser_tests7display3ast5testss_15test_format_ast
FNF:3
FNH:3
DA:18,6
DA:19,6
DA:20,6
DA:21,6
DA:23,28
DA:24,28
DA:25,28
DA:26,28
DA:27,6
DA:28,6
DA:29,6
DA:30,0
DA:31,0
DA:32,0
DA:33,11
DA:34,11
DA:35,11
DA:36,11
DA:39,28
DA:42,6
DA:43,6
DA:50,1
DA:51,1
DA:52,1
DA:60,2
DA:61,2
DA:62,2
DA:63,2
DA:64,2
DA:65,2
DA:66,2
DA:67,2
DA:68,2
DA:69,2
DA:70,2
DA:71,2
DA:72,2
DA:73,2
DA:74,2
DA:75,2
DA:76,2
DA:77,2
DA:78,2
DA:79,2
DA:80,2
DA:81,2
DA:82,2
DA:83,2
DA:86,2
DA:89,2
DA:90,2
DA:91,2
DA:92,2
DA:93,2
DA:94,2
BRF:0
BRH:0
LF:55
LH:52
end_of_record
SF:/Users/yliesfalcone/REPOS/scanworks/StylusPort/crates/anchor_parser/src/display/formatting/strings.rs
FN:15,_RNvNtNtNtCsfBVTV2kcvfU_13anchor_parser7display10formatting7strings18format_items_count
FN:3,_RNvNtNtNtCsfBVTV2kcvfU_13anchor_parser7display10formatting7strings18format_module_name
FN:11,_RNvNtNtNtCsfBVTV2kcvfU_13anchor_parser7display10formatting7strings18format_struct_name
FN:7,_RNvNtNtNtCsfBVTV2kcvfU_13anchor_parser7display10formatting7strings20format_function_name
FN:19,_RNvNtNtNtCsfBVTV2kcvfU_13anchor_parser7display10formatting7strings21format_item_reference
FN:33,_RNvNtNtNtCsfBVTV2kcvfU_13anchor_parser7display10formatting7strings23format_attributes_count
FN:29,_RNvNtNtNtCsfBVTV2kcvfU_13anchor_parser7display10formatting7strings25format_nested_module_name
FN:7,_RNvNtNtNtCs4Zl3or2NBcr_13anchor_parser7display10formatting7strings20format_function_name
FN:29,_RNvNtNtNtCs4Zl3or2NBcr_13anchor_parser7display10formatting7strings25format_nested_module_name
FN:15,_RNvNtNtNtCs4Zl3or2NBcr_13anchor_parser7display10formatting7strings18format_items_count
FN:3,_RNvNtNtNtCs4Zl3or2NBcr_13anchor_parser7display10formatting7strings18format_module_name
FN:11,_RNvNtNtNtCs4Zl3or2NBcr_13anchor_parser7display10formatting7strings18format_struct_name
FN:19,_RNvNtNtNtCs4Zl3or2NBcr_13anchor_parser7display10formatting7strings21format_item_reference
FN:33,_RNvNtNtNtCs4Zl3or2NBcr_13anchor_parser7display10formatting7strings23format_attributes_count
FN:7,_RNvNtNtNtCs3bmxXg7Z0Eq_19anchor_parser_tests7display10formatting7strings20format_function_name
FN:29,_RNvNtNtNtCs3bmxXg7Z0Eq_19anchor_parser_tests7display10formatting7strings25format_nested_module_name
FN:15,_RNvNtNtNtCs3bmxXg7Z0Eq_19anchor_parser_tests7display10formatting7strings18format_items_count
FN:3,_RNvNtNtNtCs3bmxXg7Z0Eq_19anchor_parser_tests7display10formatting7strings18format_module_name
FN:11,_RNvNtNtNtCs3bmxXg7Z0Eq_19anchor_parser_tests7display10formatting7strings18format_struct_name
FN:19,_RNvNtNtNtCs3bmxXg7Z0Eq_19anchor_parser_tests7display10formatting7strings21format_item_reference
FN:33,_RNvNtNtNtCs3bmxXg7Z0Eq_19anchor_parser_tests7display10formatting7strings23format_attributes_count
FNDA:4,_RNvNtNtNtCsfBVTV2kcvfU_13anchor_parser7display10formatting7strings18format_items_count
FNDA:7,_RNvNtNtNtCsfBVTV2kcvfU_13anchor_parser7display10formatting7strings18format_module_name
FNDA:7,_RNvNtNtNtCsfBVTV2kcvfU_13anchor_parser7display10formatting7strings18format_struct_name
FNDA:5,_RNvNtNtNtCsfBVTV2kcvfU_13anchor_parser7display10formatting7strings20format_function_name
FNDA:10,_RNvNtNtNtCsfBVTV2kcvfU_13anchor_parser7display10formatting7strings21format_item_reference
FNDA:4,_RNvNtNtNtCsfBVTV2kcvfU_13anchor_parser7display10formatting7strings23format_attributes_count
FNDA:0,_RNvNtNtNtCsfBVTV2kcvfU_13anchor_parser7display10formatting7strings25format_nested_module_name
FNDA:0,_RNvNtNtNtCs4Zl3or2NBcr_13anchor_parser7display10formatting7strings20format_function_name
FNDA:0,_RNvNtNtNtCs4Zl3or2NBcr_13anchor_parser7display10formatting7strings25format_nested_module_name
FNDA:3,_RNvNtNtNtCs4Zl3or2NBcr_13anchor_parser7display10formatting7strings18format_items_count
FNDA:4,_RNvNtNtNtCs4Zl3or2NBcr_13anchor_parser7display10formatting7strings18format_module_name
FNDA:1,_RNvNtNtNtCs4Zl3or2NBcr_13anchor_parser7display10formatting7strings18format_struct_name
FNDA:2,_RNvNtNtNtCs4Zl3or2NBcr_13anchor_parser7display10formatting7strings21format_item_reference
FNDA:2,_RNvNtNtNtCs4Zl3or2NBcr_13anchor_parser7display10formatting7strings23format_attributes_count
FNDA:0,_RNvNtNtNtCs3bmxXg7Z0Eq_19anchor_parser_tests7display10formatting7strings20format_function_name
FNDA:0,_RNvNtNtNtCs3bmxXg7Z0Eq_19anchor_parser_tests7display10formatting7strings25format_nested_module_name
FNDA:3,_RNvNtNtNtCs3bmxXg7Z0Eq_19anchor_parser_tests7display10formatting7strings18format_items_count
FNDA:4,_RNvNtNtNtCs3bmxXg7Z0Eq_19anchor_parser_tests7display10formatting7strings18format_module_name
FNDA:1,_RNvNtNtNtCs3bmxXg7Z0Eq_19anchor_parser_tests7display10formatting7strings18format_struct_name
FNDA:2,_RNvNtNtNtCs3bmxXg7Z0Eq_19anchor_parser_tests7display10formatting7strings21format_item_reference
FNDA:2,_RNvNtNtNtCs3bmxXg7Z0Eq_19anchor_parser_tests7display10formatting7strings23format_attributes_count
FNF:7
FNH:6
DA:3,15
DA:4,15
DA:5,15
DA:7,5
DA:8,5
DA:9,5
DA:11,9
DA:12,9
DA:13,9
DA:15,10
DA:16,10
DA:17,10
DA:19,14
DA:20,14
DA:21,14
DA:22,14
DA:23,14
DA:24,14
DA:25,14
DA:26,14
DA:27,14
DA:29,0
DA:30,0
DA:31,0
DA:33,8
DA:34,8
DA:35,8
BRF:0
BRH:0
LF:27
LH:24
end_of_record
SF:/Users/yliesfalcone/REPOS/scanworks/StylusPort/crates/anchor_parser/src/display/function.rs
FN:58,_RNvNtNtCsfBVTV2kcvfU_13anchor_parser7display8function11format_type
FN:17,_RNvNtNtCsfBVTV2kcvfU_13anchor_parser7display8function15format_function
FN:93,_RNvNtNtNtCs4Zl3or2NBcr_13anchor_parser7display8function5testss_20test_format_function
FN:58,_RNvNtNtCs4Zl3or2NBcr_13anchor_parser7display8function11format_type
FN:17,_RNvNtNtCs4Zl3or2NBcr_13anchor_parser7display8function15format_function
FN:58,_RNvNtNtCs3bmxXg7Z0Eq_19anchor_parser_tests7display8function11format_type
FN:17,_RNvNtNtCs3bmxXg7Z0Eq_19anchor_parser_tests7display8function15format_function
FN:93,_RNvNtNtNtCs3bmxXg7Z0Eq_19anchor_parser_tests7display8function5testss_20test_format_function
FNDA:14,_RNvNtNtCsfBVTV2kcvfU_13anchor_parser7display8function11format_type
FNDA:6,_RNvNtNtCsfBVTV2kcvfU_13anchor_parser7display8function15format_function
FNDA:1,_RNvNtNtNtCs4Zl3or2NBcr_13anchor_parser7display8function5testss_20test_format_function
FNDA:4,_RNvNtNtCs4Zl3or2NBcr_13anchor_parser7display8function11format_type
FNDA:3,_RNvNtNtCs4Zl3or2NBcr_13anchor_parser7display8function15format_function
FNDA:4,_RNvNtNtCs3bmxXg7Z0Eq_19anchor_parser_tests7display8function11format_type
FNDA:3,_RNvNtNtCs3bmxXg7Z0Eq_19anchor_parser_tests7display8function15format_function
FNDA:1,_RNvNtNtNtCs3bmxXg7Z0Eq_19anchor_parser_tests7display8function5testss_20test_format_function
FNF:3
FNH:3
DA:17,12
DA:18,12
DA:19,12
DA:20,10
DA:22,2
DA:25,12
DA:26,12
DA:29,12
DA:30,12
DA:31,12
DA:32,12
DA:33,12
DA:34,12
DA:35,12
DA:36,12
DA:37,12
DA:38,12
DA:39,12
DA:41,0
DA:42,0
DA:43,0
DA:48,12
DA:49,8
DA:50,8
DA:51,8
DA:52,8
DA:54,12
DA:55,12
DA:58,22
DA:59,22
DA:60,20
DA:61,20
DA:62,20
DA:65,20
DA:66,14
DA:67,14
DA:68,14
DA:69,6
DA:70,0
DA:71,0
DA:72,0
DA:74,2
DA:75,2
DA:76,2
DA:77,0
DA:78,2
DA:79,2
DA:81,0
DA:82,0
DA:83,0
DA:85,22
DA:93,2
DA:94,2
DA:95,2
DA:96,2
DA:97,2
DA:98,2
DA:99,2
DA:100,2
DA:101,2
DA:102,2
DA:103,2
DA:104,2
BRF:0
BRH:0
LF:63
LH:53
end_of_record
SF:/Users/yliesfalcone/REPOS/scanworks/StylusPort/crates/anchor_parser/src/display/module.rs
FN:23,_RNvNtNtCsfBVTV2kcvfU_13anchor_parser7display6module13format_module
FN:70,_RNvNtNtCsfBVTV2kcvfU_13anchor_parser7display6module20format_nested_module
FN:86,_RNvNtNtNtCs4Zl3or2NBcr_13anchor_parser7display6module5testss_18test_format_module
FN:23,_RNvNtNtCs4Zl3or2NBcr_13anchor_parser7display6module13format_module
FN:70,_RNvNtNtCs4Zl3or2NBcr_13anchor_parser7display6module20format_nested_module
FN:23,_RNvNtNtCs3bmxXg7Z0Eq_19anchor_parser_tests7display6module13format_module
FN:70,_RNvNtNtCs3bmxXg7Z0Eq_19anchor_parser_tests7display6module20format_nested_module
FN:86,_RNvNtNtNtCs3bmxXg7Z0Eq_19anchor_parser_tests7display6module5testss_18test_format_module
FNDA:4,_RNvNtNtCsfBVTV2kcvfU_13anchor_parser7display6module13format_module
FNDA:0,_RNvNtNtCsfBVTV2kcvfU_13anchor_parser7display6module20format_nested_module
FNDA:1,_RNvNtNtNtCs4Zl3or2NBcr_13anchor_parser7display6module5testss_18test_format_module
FNDA:2,_RNvNtNtCs4Zl3or2NBcr_13anchor_parser7display6module13format_module
FNDA:0,_RNvNtNtCs4Zl3or2NBcr_13anchor_parser7display6module20format_nested_module
FNDA:2,_RNvNtNtCs3bmxXg7Z0Eq_19anchor_parser_tests7display6module13format_module
FNDA:0,_RNvNtNtCs3bmxXg7Z0Eq_19anchor_parser_tests7display6module20format_nested_module
FNDA:1,_RNvNtNtNtCs3bmxXg7Z0Eq_19anchor_parser_tests7display6module5testss_18test_format_module
FNF:3
FNH:2
DA:23,8
DA:24,8
DA:25,8
DA:26,8
DA:27,8
DA:28,8
DA:31,14
DA:32,6
DA:33,6
DA:34,6
DA:38,8
DA:39,8
DA:40,14
DA:41,14
DA:42,14
DA:43,14
DA:44,14
DA:45,14
DA:46,14
DA:47,14
DA:48,14
DA:49,14
DA:50,10
DA:51,10
DA:52,10
DA:53,0
DA:54,0
DA:55,0
DA:56,0
DA:57,0
DA:58,0
DA:59,0
DA:60,0
DA:61,4
DA:64,0
DA:66,8
DA:67,8
DA:70,0
DA:71,0
DA:72,0
DA:73,0
DA:74,0
DA:75,0
DA:76,0
DA:77,0
DA:78,0
DA:86,2
DA:87,2
DA:88,2
DA:89,2
DA:90,2
DA:91,2
DA:92,2
DA:93,2
DA:94,2
BRF:0
BRH:0
LF:55
LH:37
end_of_record
SF:/Users/yliesfalcone/REPOS/scanworks/StylusPort/crates/anchor_parser/src/display/structure.rs
FN:71,_RNvNtNtCsfBVTV2kcvfU_13anchor_parser7display9structure11format_type
FN:62,_RNvNtNtCsfBVTV2kcvfU_13anchor_parser7display9structure12count_fields
FN:17,_RNvNtNtCsfBVTV2kcvfU_13anchor_parser7display9structure13format_struct
FN:106,_RNvNtNtNtCs4Zl3or2NBcr_13anchor_parser7display9structure5testss_18test_format_struct
FN:71,_RNvNtNtCs4Zl3or2NBcr_13anchor_parser7display9structure11format_type
FN:62,_RNvNtNtCs4Zl3or2NBcr_13anchor_parser7display9structure12count_fields
FN:17,_RNvNtNtCs4Zl3or2NBcr_13anchor_parser7display9structure13format_struct
FN:106,_RNvNtNtNtCs3bmxXg7Z0Eq_19anchor_parser_tests7display9structure5testss_18test_format_struct
FN:71,_RNvNtNtCs3bmxXg7Z0Eq_19anchor_parser_tests7display9structure11format_type
FN:62,_RNvNtNtCs3bmxXg7Z0Eq_19anchor_parser_tests7display9structure12count_fields
FN:17,_RNvNtNtCs3bmxXg7Z0Eq_19anchor_parser_tests7display9structure13format_struct
FNDA:18,_RNvNtNtCsfBVTV2kcvfU_13anchor_parser7display9structure11format_type
FNDA:9,_RNvNtNtCsfBVTV2kcvfU_13anchor_parser7display9structure12count_fields
FNDA:9,_RNvNtNtCsfBVTV2kcvfU_13anchor_parser7display9structure13format_struct
FNDA:1,_RNvNtNtNtCs4Zl3or2NBcr_13anchor_parser7display9structure5testss_18test_format_struct
FNDA:4,_RNvNtNtCs4Zl3or2NBcr_13anchor_parser7display9structure11format_type
FNDA:2,_RNvNtNtCs4Zl3or2NBcr_13anchor_parser7display9structure12count_fields
FNDA:2,_RNvNtNtCs4Zl3or2NBcr_13anchor_parser7display9structure13format_struct
FNDA:1,_RNvNtNtNtCs3bmxXg7Z0Eq_19anchor_parser_tests7display9structure5testss_18test_format_struct
FNDA:4,_RNvNtNtCs3bmxXg7Z0Eq_19anchor_parser_tests7display9structure11format_type
FNDA:2,_RNvNtNtCs3bmxXg7Z0Eq_19anchor_parser_tests7display9structure12count_fields
FNDA:2,_RNvNtNtCs3bmxXg7Z0Eq_19anchor_parser_tests7display9structure13format_struct
FNF:4
FNH:4
DA:17,13
DA:18,13
DA:19,13
DA:20,11
DA:22,2
DA:25,13
DA:26,13
DA:27,13
DA:28,13
DA:29,13
DA:30,13
DA:31,13
DA:32,13
DA:33,13
DA:34,26
DA:35,26
DA:36,26
DA:37,26
DA:38,26
DA:39,26
DA:40,26
DA:41,26
DA:42,26
DA:45,0
DA:46,0
DA:47,0
DA:48,0
DA:49,0
DA:50,0
DA:51,0
DA:52,0
DA:53,0
DA:55,0
DA:58,13
DA:59,13
DA:62,13
DA:63,13
DA:64,13
DA:65,0
DA:66,0
DA:68,13
DA:71,26
DA:72,26
DA:73,26
DA:74,26
DA:75,26
DA:78,26
DA:79,16
DA:80,16
DA:81,16
DA:82,10
DA:83,0
DA:84,0
DA:85,0
DA:87,0
DA:88,0
DA:89,0
DA:90,0
DA:91,0
DA:92,0
DA:94,0
DA:95,0
DA:96,0
DA:98,26
DA:106,2
DA:107,2
DA:108,2
DA:109,2
DA:110,2
DA:111,2
DA:112,2
DA:113,2
DA:114,2
DA:115,2
DA:116,2
BRF:0
BRH:0
LF:75
LH:51
end_of_record
SF:/Users/yliesfalcone/REPOS/scanworks/StylusPort/crates/anchor_parser/src/display/utils.rs
FN:14,_RNvNtNtCsfBVTV2kcvfU_13anchor_parser7display5utils14item_type_name
FN:51,_RNvNtNtNtCs4Zl3or2NBcr_13anchor_parser7display5utils5tests11format_path
FN:98,_RNvNtNtNtCs4Zl3or2NBcr_13anchor_parser7display5utils5testss_16test_format_path
FN:88,_RNvNtNtNtCs4Zl3or2NBcr_13anchor_parser7display5utils5testss_26test_indent_various_levels
FN:60,_RNvNtNtNtCs4Zl3or2NBcr_13anchor_parser7display5utils5testss_32test_item_type_name_all_variants
FN:54,_RNCNvNtNtNtCs4Zl3or2NBcr_13anchor_parser7display5utils5tests11format_path0B9_
FN:14,_RNvNtNtCs4Zl3or2NBcr_13anchor_parser7display5utils14item_type_name
FN:14,_RNvNtNtCs3bmxXg7Z0Eq_19anchor_parser_tests7display5utils14item_type_name
FN:51,_RNvNtNtNtCs3bmxXg7Z0Eq_19anchor_parser_tests7display5utils5tests11format_path
FN:98,_RNvNtNtNtCs3bmxXg7Z0Eq_19anchor_parser_tests7display5utils5testss_16test_format_path
FN:88,_RNvNtNtNtCs3bmxXg7Z0Eq_19anchor_parser_tests7display5utils5testss_26test_indent_various_levels
FN:60,_RNvNtNtNtCs3bmxXg7Z0Eq_19anchor_parser_tests7display5utils5testss_32test_item_type_name_all_variants
FN:54,_RNCNvNtNtNtCs3bmxXg7Z0Eq_19anchor_parser_tests7display5utils5tests11format_path0B9_
FNDA:32,_RNvNtNtCsfBVTV2kcvfU_13anchor_parser7display5utils14item_type_name
FNDA:3,_RNvNtNtNtCs4Zl3or2NBcr_13anchor_parser7display5utils5tests11format_path
FNDA:1,_RNvNtNtNtCs4Zl3or2NBcr_13anchor_parser7display5utils5testss_16test_format_path
FNDA:1,_RNvNtNtNtCs4Zl3or2NBcr_13anchor_parser7display5utils5testss_26test_indent_various_levels
FNDA:1,_RNvNtNtNtCs4Zl3or2NBcr_13anchor_parser7display5utils5testss_32test_item_type_name_all_variants
FNDA:5,_RNCNvNtNtNtCs4Zl3or2NBcr_13anchor_parser7display5utils5tests11format_path0B9_
FNDA:19,_RNvNtNtCs4Zl3or2NBcr_13anchor_parser7display5utils14item_type_name
FNDA:19,_RNvNtNtCs3bmxXg7Z0Eq_19anchor_parser_tests7display5utils14item_type_name
FNDA:3,_RNvNtNtNtCs3bmxXg7Z0Eq_19anchor_parser_tests7display5utils5tests11format_path
FNDA:1,_RNvNtNtNtCs3bmxXg7Z0Eq_19anchor_parser_tests7display5utils5testss_16test_format_path
FNDA:1,_RNvNtNtNtCs3bmxXg7Z0Eq_19anchor_parser_tests7display5utils5testss_26test_indent_various_levels
FNDA:1,_RNvNtNtNtCs3bmxXg7Z0Eq_19anchor_parser_tests7display5utils5testss_32test_item_type_name_all_variants
FNDA:5,_RNCNvNtNtNtCs3bmxXg7Z0Eq_19anchor_parser_tests7display5utils5tests11format_path0B9_
FNF:6
FNH:6
DA:14,70
DA:15,70
DA:16,2
DA:17,2
DA:18,2
DA:19,12
DA:20,2
DA:21,3
DA:22,5
DA:23,8
DA:24,2
DA:25,13
DA:26,2
DA:27,0
DA:28,2
DA:29,2
DA:30,13
DA:31,0
DA:32,0
DA:34,70
DA:51,6
DA:52,6
DA:53,6
DA:54,10
DA:55,6
DA:56,6
DA:57,6
DA:60,2
DA:61,2
DA:62,2
DA:63,2
DA:64,2
DA:65,2
DA:66,2
DA:67,2
DA:68,2
DA:69,2
DA:70,2
DA:71,2
DA:72,2
DA:73,2
DA:74,2
DA:75,2
DA:76,2
DA:77,2
DA:78,2
DA:80,30
DA:81,28
DA:82,28
DA:83,0
DA:85,2
DA:88,2
DA:89,2
DA:90,2
DA:91,2
DA:92,2
DA:93,2
DA:94,2
DA:95,2
DA:98,2
DA:99,2
DA:100,2
DA:101,2
DA:104,2
DA:105,2
DA:108,2
DA:109,2
DA:110,2
BRF:0
BRH:0
LF:69
LH:65
end_of_record
SF:/Users/yliesfalcone/REPOS/scanworks/StylusPort/crates/anchor_parser/src/main.rs
FN:6,_RNvCs8NvbMD3p9Dh_13anchor_parser3run
FN:18,_RNvCs8NvbMD3p9Dh_13anchor_parser4main
FN:18,_RNvCs4ewjrIickct_13anchor_parser4main
FN:59,_RNvNtCs4ewjrIickct_13anchor_parser5testss_19test_run_valid_file
FN:73,_RNvNtCs4ewjrIickct_13anchor_parser5testss_21test_run_invalid_file
FN:6,_RNvCs4ewjrIickct_13anchor_parser3run
FNDA:0,_RNvCs8NvbMD3p9Dh_13anchor_parser3run
FNDA:0,_RNvCs8NvbMD3p9Dh_13anchor_parser4main
FNDA:0,_RNvCs4ewjrIickct_13anchor_parser4main
FNDA:1,_RNvNtCs4ewjrIickct_13anchor_parser5testss_19test_run_valid_file
FNDA:1,_RNvNtCs4ewjrIickct_13anchor_parser5testss_21test_run_invalid_file
FNDA:2,_RNvCs4ewjrIickct_13anchor_parser3run
FNF:4
FNH:3
DA:6,2
DA:7,2
DA:8,1
DA:9,1
DA:10,1
DA:12,1
DA:13,1
DA:16,2
DA:18,0
DA:19,0
DA:20,0
DA:21,0
DA:22,0
DA:23,0
DA:24,0
DA:25,0
DA:26,0
DA:27,0
DA:28,0
DA:29,0
DA:30,0
DA:33,0
DA:59,1
DA:60,1
DA:61,1
DA:62,1
DA:63,1
DA:64,1
DA:65,1
DA:66,1
DA:67,1
DA:68,1
DA:69,1
DA:70,1
DA:73,1
DA:74,1
DA:75,1
DA:76,1
DA:77,1
DA:78,1
BRF:0
BRH:0
LF:40
LH:26
end_of_record
SF:/Users/yliesfalcone/REPOS/scanworks/StylusPort/crates/anchor_parser/src/parser.rs
FN:17,_RNvNtCsfBVTV2kcvfU_13anchor_parser6parser10parse_file
FN:23,_RNvNtCsfBVTV2kcvfU_13anchor_parser6parser9parse_str
FN:17,_RNvNtCs4Zl3or2NBcr_13anchor_parser6parser10parse_file
FN:23,_RNvNtCs4Zl3or2NBcr_13anchor_parser6parser9parse_str
FN:37,_RNvNtNtCs4Zl3or2NBcr_13anchor_parser6parser5tests15parse_temp_code
FN:88,_RNvNtNtCs4Zl3or2NBcr_13anchor_parser6parser5testss_14test_parse_str
FN:73,_RNvNtNtCs4Zl3or2NBcr_13anchor_parser6parser5testss_25test_parse_invalid_syntax
FN:45,_RNvNtNtCs4Zl3or2NBcr_13anchor_parser6parser5testss_28test_parse_valid_anchor_file
FN:37,_RNvNtNtCs3bmxXg7Z0Eq_19anchor_parser_tests6parser5tests15parse_temp_code
FN:88,_RNvNtNtCs3bmxXg7Z0Eq_19anchor_parser_tests6parser5testss_14test_parse_str
FN:73,_RNvNtNtCs3bmxXg7Z0Eq_19anchor_parser_tests6parser5testss_25test_parse_invalid_syntax
FN:45,_RNvNtNtCs3bmxXg7Z0Eq_19anchor_parser_tests6parser5testss_28test_parse_valid_anchor_file
FN:17,_RNvNtCs3bmxXg7Z0Eq_19anchor_parser_tests6parser10parse_file
FN:23,_RNvNtCs3bmxXg7Z0Eq_19anchor_parser_tests6parser9parse_str
FNDA:5,_RNvNtCsfBVTV2kcvfU_13anchor_parser6parser10parse_file
FNDA:4,_RNvNtCsfBVTV2kcvfU_13anchor_parser6parser9parse_str
FNDA:2,_RNvNtCs4Zl3or2NBcr_13anchor_parser6parser10parse_file
FNDA:3,_RNvNtCs4Zl3or2NBcr_13anchor_parser6parser9parse_str
FNDA:2,_RNvNtNtCs4Zl3or2NBcr_13anchor_parser6parser5tests15parse_temp_code
FNDA:1,_RNvNtNtCs4Zl3or2NBcr_13anchor_parser6parser5testss_14test_parse_str
FNDA:1,_RNvNtNtCs4Zl3or2NBcr_13anchor_parser6parser5testss_25test_parse_invalid_syntax
FNDA:1,_RNvNtNtCs4Zl3or2NBcr_13anchor_parser6parser5testss_28test_parse_valid_anchor_file
FNDA:2,_RNvNtNtCs3bmxXg7Z0Eq_19anchor_parser_tests6parser5tests15parse_temp_code
FNDA:1,_RNvNtNtCs3bmxXg7Z0Eq_19anchor_parser_tests6parser5testss_14test_parse_str
FNDA:1,_RNvNtNtCs3bmxXg7Z0Eq_19anchor_parser_tests6parser5testss_25test_parse_invalid_syntax
FNDA:1,_RNvNtNtCs3bmxXg7Z0Eq_19anchor_parser_tests6parser5testss_28test_parse_valid_anchor_file
FNDA:2,_RNvNtCs3bmxXg7Z0Eq_19anchor_parser_tests6parser10parse_file
FNDA:3,_RNvNtCs3bmxXg7Z0Eq_19anchor_parser_tests6parser9parse_str
FNF:6
FNH:6
DA:17,9
DA:18,9
DA:19,8
DA:20,9
DA:23,10
DA:24,10
DA:25,8
DA:26,2
DA:28,10
DA:37,4
DA:38,4
DA:39,4
DA:40,4
DA:41,4
DA:42,4
DA:45,2
DA:46,2
DA:47,2
DA:48,2
DA:49,2
DA:50,2
DA:51,2
DA:52,2
DA:53,2
DA:54,2
DA:55,2
DA:56,2
DA:57,2
DA:58,2
DA:59,2
DA:60,2
DA:61,2
DA:62,2
DA:65,2
DA:66,2
DA:67,2
DA:68,0
DA:70,2
DA:73,2
DA:74,2
DA:75,2
DA:76,2
DA:77,2
DA:78,2
DA:79,2
DA:80,2
DA:81,2
DA:82,2
DA:83,2
DA:84,2
DA:85,2
DA:88,2
DA:89,2
DA:90,2
DA:91,2
DA:92,2
DA:93,2
DA:94,2
DA:95,2
DA:96,2
BRF:0
BRH:0
LF:60
LH:59
end_of_record
SF:/Users/yliesfalcone/REPOS/scanworks/StylusPort/crates/utils/src/fmt.rs
FN:12,_RNvNtCsab6HWIA98Ri_5utils3fmt6indent
FNDA:12,_RNvNtCsab6HWIA98Ri_5utils3fmt6indent
FNF:1
FNH:1
DA:12,12
DA:13,12
DA:14,2
DA:15,2
DA:16,2
DA:17,2
DA:18,2
DA:19,2
DA:21,12
BRF:0
BRH:0
LF:9
LH:9
end_of_record